; Function Attrs: mustprogress uwtable
define void @_ZN10open_spiel8deep_sea12DeepSeaState13DoApplyActionEl(ptr noundef nonnull align 8 dereferenceable(160) %0, i64 noundef %1) unnamed_addr #3 align 2 personality ptr @__gxx_personality_v0 {
  %3 = getelementptr inbounds nuw i8, ptr %0, i64 112
  %4 = load i32, ptr %3, align 8
  %5 = getelementptr inbounds nuw i8, ptr %0, i64 60
  %6 = load i32, ptr %5, align 4
  %7 = mul nsw i32 %6, %4
  %8 = getelementptr inbounds nuw i8, ptr %0, i64 116
  %9 = load i32, ptr %8, align 4
  %10 = add nsw i32 %7, %9
  %11 = getelementptr inbounds nuw i8, ptr %0, i64 72
  %12 = sext i32 %10 to i64
  %13 = load ptr, ptr %11, align 8
  %14 = sdiv i32 %10, 64
  %.sext = sext i32 %14 to i64
  %15 = getelementptr inbounds i64, ptr %13, i64 %.sext
  %16 = and i64 %12, -9223372036854775745
  %17 = icmp ugt i64 %16, -9223372036854775808
  %storemerge.idx.i.i.i.i.i = select i1 %17, i64 -8, i64 0
  %storemerge.i.i.i.i.i = getelementptr inbounds i8, ptr %15, i64 %storemerge.idx.i.i.i.i.i
  %18 = and i64 %12, 63
  %19 = load i64, ptr %storemerge.i.i.i.i.i, align 8
  %20 = lshr i64 %19, %18
  %21 = and i64 %20, 1
  %22 = icmp eq i64 %1, %21
  br i1 %22, label %.sink.split, label %23

23:                                               ; preds = %2
  %24 = icmp sgt i32 %9, 0
  br i1 %24, label %.sink.split, label %26

.sink.split:                                      ; preds = %23, %2
  %.sink4 = phi i32 [ 1, %2 ], [ -1, %23 ]
  %25 = add nsw i32 %9, %.sink4
  store i32 %25, ptr %8, align 4
  br label %26

26:                                               ; preds = %.sink.split, %23
  %27 = add nsw i32 %4, 1
  store i32 %27, ptr %3, align 8
  %28 = getelementptr inbounds i8, ptr %0, i64 136
  %29 = load ptr, ptr %28, align 8
  %30 = getelementptr inbounds i8, ptr %0, i64 152
  %31 = load ptr, ptr %30, align 8
  %.not.i = icmp eq ptr %29, %31
  %.sroa.2.0..sroa_idx.i.i = getelementptr inbounds i8, ptr %0, i64 144
  %.sroa.2.0.copyload.i11.i = load i32, ptr %.sroa.2.0..sroa_idx.i.i, align 8
  br i1 %.not.i, label %46, label %32

32:                                               ; preds = %26
  %33 = add i32 %.sroa.2.0.copyload.i11.i, 1
  store i32 %33, ptr %.sroa.2.0..sroa_idx.i.i, align 8
  %34 = icmp eq i32 %.sroa.2.0.copyload.i11.i, 63
  br i1 %34, label %35, label %_ZNSt13_Bit_iteratorppEi.exit.i

35:                                               ; preds = %32
  store i32 0, ptr %.sroa.2.0..sroa_idx.i.i, align 8
  %36 = getelementptr inbounds i8, ptr %29, i64 8
  store ptr %36, ptr %28, align 8
  br label %_ZNSt13_Bit_iteratorppEi.exit.i

_ZNSt13_Bit_iteratorppEi.exit.i:                  ; preds = %35, %32
  %37 = zext nneg i32 %.sroa.2.0.copyload.i11.i to i64
  %38 = shl nuw i64 1, %37
  br i1 %22, label %39, label %42

39:                                               ; preds = %_ZNSt13_Bit_iteratorppEi.exit.i
  %40 = load i64, ptr %29, align 8
  %41 = or i64 %40, %38
  store i64 %41, ptr %29, align 8
  br label %_ZNSt6vectorIbSaIbEE9push_backEb.exit

42:                                               ; preds = %_ZNSt13_Bit_iteratorppEi.exit.i
  %43 = xor i64 %38, -1
  %44 = load i64, ptr %29, align 8
  %45 = and i64 %44, %43
  store i64 %45, ptr %29, align 8
  br label %_ZNSt6vectorIbSaIbEE9push_backEb.exit

46:                                               ; preds = %26
  %47 = getelementptr inbounds nuw i8, ptr %0, i64 120
  tail call void @_ZNSt6vectorIbSaIbEE13_M_insert_auxESt13_Bit_iteratorb(ptr noundef nonnull align 8 dereferenceable(40) %47, ptr %29, i32 %.sroa.2.0.copyload.i11.i, i1 noundef zeroext %22)
  br label %_ZNSt6vectorIbSaIbEE9push_backEb.exit

_ZNSt6vectorIbSaIbEE9push_backEb.exit:            ; preds = %39, %42, %46
  ret void
}